target datalayout = "e-m:e-p270:32:32-p271:32:32-p272:64:64-i64:64-i128:128-f80:128-n8:16:32:64-S128"
target triple = "x86_64-pc-linux-gnu"

%struct.grpc_slice = type { ptr, %"union.grpc_slice::grpc_slice_data" }
%"union.grpc_slice::grpc_slice_data" = type { %"struct.grpc_slice::grpc_slice_data::grpc_slice_refcounted", [8 x i8] }
%"struct.grpc_slice::grpc_slice_data::grpc_slice_refcounted" = type { i64, ptr }
%"class.grpc_core::channelz::ChannelTrace::TraceEvent" = type { %struct.gpr_timespec, i32, %struct.grpc_slice, i64, %"class.grpc_core::RefCountedPtr", ptr }
%struct.gpr_timespec = type { i64, i32, i32 }
%"class.grpc_core::RefCountedPtr" = type { ptr }
%"struct.std::atomic" = type { %"struct.std::__atomic_base" }
%"struct.std::__atomic_base" = type { i64 }
%"class.grpc_core::channelz::ChannelTrace" = type { i64, %struct.gpr_timespec, %"class.absl::lts_20240722::Mutex", i64, i64, ptr, ptr }
%"class.absl::lts_20240722::Mutex" = type { %"struct.std::atomic" }

@_ZN9grpc_core8channelz12ChannelTrace10TraceEventD1Ev = unnamed_addr alias void (ptr), ptr @_ZN9grpc_core8channelz12ChannelTrace10TraceEventD2Ev

; Function Attrs: alwaysinline mustprogress nounwind uwtable
define linkonce_odr void @_ZN4absl12lts_202407225Mutex4DtorEv(ptr noundef nonnull align 8 dereferenceable(8) %0) #12 comdat align 2 {
  %2 = alloca ptr, align 8
  store ptr %0, ptr %2, align 8, !tbaa !99
  ret void
}

; Function Attrs: noinline noreturn nounwind uwtable
define linkonce_odr hidden void @__clang_call_terminate(ptr noundef %0) #9 comdat {
  %2 = call ptr @__cxa_begin_catch(ptr %0) #3
  call void @_ZSt9terminatev() #20
  unreachable
}

; Function Attrs: alwaysinline mustprogress nounwind uwtable
define linkonce_odr void @_ZN4absl12lts_202407225MutexD2Ev(ptr noundef nonnull align 8 dereferenceable(8) %0) unnamed_addr #12 comdat align 2 personality ptr @__gxx_personality_v0 {
  %2 = alloca ptr, align 8
  store ptr %0, ptr %2, align 8, !tbaa !99
  %3 = load ptr, ptr %2, align 8
  invoke void @_ZN4absl12lts_202407225Mutex4DtorEv(ptr noundef nonnull align 8 dereferenceable(8) %3)
          to label %4 unwind label %5

4:                                                ; preds = %1
  ret void

5:                                                ; preds = %1
  %6 = landingpad { ptr, i32 }
          catch ptr null
  %7 = extractvalue { ptr, i32 } %6, 0
  call void @__clang_call_terminate(ptr %7) #20
  unreachable
}

; Function Attrs: mustprogress nounwind uwtable
define linkonce_odr noundef ptr @_ZNK9grpc_core8channelz12ChannelTrace10TraceEvent4nextEv(ptr noundef nonnull align 8 dereferenceable(80) %0) #7 comdat align 2 {
  %2 = alloca ptr, align 8
  store ptr %0, ptr %2, align 8, !tbaa !3
  %3 = load ptr, ptr %2, align 8
  %4 = getelementptr inbounds nuw %"class.grpc_core::channelz::ChannelTrace::TraceEvent", ptr %3, i32 0, i32 5
  %5 = load ptr, ptr %4, align 8, !tbaa !28
  ret ptr %5
}

; Function Attrs: mustprogress nounwind uwtable
define void @_ZN9grpc_core8channelz12ChannelTraceD2Ev(ptr noundef nonnull align 8 dereferenceable(64) %0) unnamed_addr #7 align 2 personality ptr @__gxx_personality_v0 {
  %2 = alloca ptr, align 8
  %3 = alloca i32, align 4
  %4 = alloca ptr, align 8
  %5 = alloca ptr, align 8
  store ptr %0, ptr %2, align 8, !tbaa !90
  %6 = load ptr, ptr %2, align 8
  %7 = getelementptr inbounds nuw %"class.grpc_core::channelz::ChannelTrace", ptr %6, i32 0, i32 0
  %8 = load i64, ptr %7, align 8, !tbaa !92
  %9 = icmp eq i64 %8, 0
  br i1 %9, label %10, label %11

10:                                               ; preds = %1
  store i32 1, ptr %3, align 4
  br label %27

11:                                               ; preds = %1
  call void @llvm.lifetime.start.p0(i64 8, ptr %4) #3
  %12 = getelementptr inbounds nuw %"class.grpc_core::channelz::ChannelTrace", ptr %6, i32 0, i32 5
  %13 = load ptr, ptr %12, align 8, !tbaa !97
  store ptr %13, ptr %4, align 8, !tbaa !3
  br label %14

14:                                               ; preds = %25, %11
  %15 = load ptr, ptr %4, align 8, !tbaa !3
  %16 = icmp ne ptr %15, null
  br i1 %16, label %17, label %26

17:                                               ; preds = %14
  call void @llvm.lifetime.start.p0(i64 8, ptr %5) #3
  %18 = load ptr, ptr %4, align 8, !tbaa !3
  store ptr %18, ptr %5, align 8, !tbaa !3
  %19 = load ptr, ptr %4, align 8, !tbaa !3
  %20 = invoke noundef ptr @_ZNK9grpc_core8channelz12ChannelTrace10TraceEvent4nextEv(ptr noundef nonnull align 8 dereferenceable(80) %19)
          to label %21 unwind label %31

21:                                               ; preds = %17
  store ptr %20, ptr %4, align 8, !tbaa !3
  %22 = load ptr, ptr %5, align 8, !tbaa !3
  %23 = icmp eq ptr %22, null
  br i1 %23, label %25, label %24

24:                                               ; preds = %21
  call void @_ZN9grpc_core8channelz12ChannelTrace10TraceEventD1Ev(ptr noundef nonnull align 8 dereferenceable(80) %22) #3
  call void @_ZdlPvm(ptr noundef %22, i64 noundef 80) #22
  br label %25

25:                                               ; preds = %24, %21
  call void @llvm.lifetime.end.p0(i64 8, ptr %5) #3
  br label %14, !llvm.loop !101

26:                                               ; preds = %14
  call void @llvm.lifetime.end.p0(i64 8, ptr %4) #3
  store i32 0, ptr %3, align 4
  br label %27

27:                                               ; preds = %26, %10
  %28 = getelementptr inbounds nuw %"class.grpc_core::channelz::ChannelTrace", ptr %6, i32 0, i32 2
  call void @_ZN4absl12lts_202407225MutexD2Ev(ptr noundef nonnull align 8 dereferenceable(8) %28) #3
  %29 = load i32, ptr %3, align 4
  switch i32 %29, label %34 [
    i32 0, label %30
    i32 1, label %30
  ]

30:                                               ; preds = %27, %27
  ret void

31:                                               ; preds = %17
  %32 = landingpad { ptr, i32 }
          catch ptr null
  %33 = extractvalue { ptr, i32 } %32, 0
  call void @__clang_call_terminate(ptr %33) #20
  unreachable

34:                                               ; preds = %27
  unreachable
}