; Function Attrs: mustprogress nounwind uwtable
define void @_ZN9grpc_core8channelz12ChannelTraceD2Ev(ptr noundef nonnull readonly align 8 captures(none) dereferenceable(64) %0) unnamed_addr #6 align 2 personality ptr @__gxx_personality_v0 {
  %2 = load i64, ptr %0, align 8, !tbaa !99
  %3 = icmp eq i64 %2, 0
  %4 = getelementptr inbounds nuw i8, ptr %0, i64 48
  %5 = load ptr, ptr %4, align 8
  %.not5 = icmp eq ptr %5, null
  %or.cond = select i1 %3, i1 true, i1 %.not5
  br i1 %or.cond, label %.loopexit, label %.lr.ph

.lr.ph:                                           ; preds = %1, %.lr.ph
  %.06 = phi ptr [ %7, %.lr.ph ], [ %5, %1 ]
  %6 = getelementptr inbounds nuw i8, ptr %.06, i64 72
  %7 = load ptr, ptr %6, align 8, !tbaa !27
  tail call void @_ZN9grpc_core8channelz12ChannelTrace10TraceEventD1Ev(ptr noundef nonnull align 8 dereferenceable(80) %.06) #23
  tail call void @_ZdlPvm(ptr noundef nonnull %.06, i64 noundef 80) #26
  %.not = icmp eq ptr %7, null
  br i1 %.not, label %.loopexit, label %.lr.ph, !llvm.loop !102

.loopexit:                                        ; preds = %.lr.ph, %1
  ret void
}